target datalayout = "e-m:e-p270:32:32-p271:32:32-p272:64:64-i64:64-i128:128-f80:128-n8:16:32:64-S128"
target triple = "x86_64-pc-linux-gnu"

%struct.SYSCACHECALLBACK = type { i16, i16, ptr, i64 }

@syscache_callback_list = internal global [64 x %struct.SYSCACHECALLBACK] zeroinitializer, align 16
@.str.1 = private unnamed_addr constant [8 x i8] c"inval.c\00", align 1
@.str.8 = private unnamed_addr constant [21 x i8] c"invalid cache ID: %d\00", align 1
@syscache_callback_links = internal global [85 x i16] zeroinitializer, align 16
@__func__.CallSyscacheCallbacks = private unnamed_addr constant [22 x i8] c"CallSyscacheCallbacks\00", align 1

; Function Attrs: nounwind uwtable
define dso_local void @CallSyscacheCallbacks(i32 noundef %0, i32 noundef %1) #0 {
  %3 = alloca i32, align 4
  %4 = alloca i32, align 4
  %5 = alloca i32, align 4
  %6 = alloca ptr, align 8
  store i32 %0, ptr %3, align 4
  store i32 %1, ptr %4, align 4
  call void @llvm.lifetime.start.p0(i64 4, ptr %5) #7
  %7 = load i32, ptr %3, align 4
  %8 = icmp slt i32 %7, 0
  br i1 %8, label %12, label %9

9:                                                ; preds = %2
  %10 = load i32, ptr %3, align 4
  %11 = icmp sge i32 %10, 85
  br i1 %11, label %12, label %24

12:                                               ; preds = %9, %2
  br label %13

13:                                               ; preds = %12
  br i1 true, label %14, label %16

14:                                               ; preds = %13
  %15 = call zeroext i1 @errstart_cold(i32 noundef 21, ptr noundef null) #8
  br i1 %15, label %18, label %21

16:                                               ; preds = %13
  %17 = call zeroext i1 @errstart(i32 noundef 21, ptr noundef null)
  br i1 %17, label %18, label %21

18:                                               ; preds = %16, %14
  %19 = load i32, ptr %3, align 4
  %20 = call i32 (ptr, ...) @errmsg_internal(ptr noundef @.str.8, i32 noundef %19)
  call void @errfinish(ptr noundef @.str.1, i32 noundef 1773, ptr noundef @__func__.CallSyscacheCallbacks)
  br label %21

21:                                               ; preds = %18, %16, %14
  unreachable

22:                                               ; No predecessors!
  br label %23

23:                                               ; preds = %22
  br label %24

24:                                               ; preds = %23, %9
  %25 = load i32, ptr %3, align 4
  %26 = sext i32 %25 to i64
  %27 = getelementptr inbounds [85 x i16], ptr @syscache_callback_links, i64 0, i64 %26
  %28 = load i16, ptr %27, align 2
  %29 = sext i16 %28 to i32
  %30 = sub i32 %29, 1
  store i32 %30, ptr %5, align 4
  br label %31

31:                                               ; preds = %34, %24
  %32 = load i32, ptr %5, align 4
  %33 = icmp sge i32 %32, 0
  br i1 %33, label %34, label %51

34:                                               ; preds = %31
  call void @llvm.lifetime.start.p0(i64 8, ptr %6) #7
  %35 = load i32, ptr %5, align 4
  %36 = sext i32 %35 to i64
  %37 = getelementptr inbounds %struct.SYSCACHECALLBACK, ptr @syscache_callback_list, i64 %36
  store ptr %37, ptr %6, align 8
  %38 = load ptr, ptr %6, align 8
  %39 = getelementptr inbounds nuw %struct.SYSCACHECALLBACK, ptr %38, i32 0, i32 2
  %40 = load ptr, ptr %39, align 8
  %41 = load ptr, ptr %6, align 8
  %42 = getelementptr inbounds nuw %struct.SYSCACHECALLBACK, ptr %41, i32 0, i32 3
  %43 = load i64, ptr %42, align 8
  %44 = load i32, ptr %3, align 4
  %45 = load i32, ptr %4, align 4
  call void %40(i64 noundef %43, i32 noundef %44, i32 noundef %45)
  %46 = load ptr, ptr %6, align 8
  %47 = getelementptr inbounds nuw %struct.SYSCACHECALLBACK, ptr %46, i32 0, i32 1
  %48 = load i16, ptr %47, align 2
  %49 = sext i16 %48 to i32
  %50 = sub i32 %49, 1
  store i32 %50, ptr %5, align 4
  call void @llvm.lifetime.end.p0(i64 8, ptr %6) #7
  br label %31, !llvm.loop !10

51:                                               ; preds = %31
  call void @llvm.lifetime.end.p0(i64 4, ptr %5) #7
  ret void
}