; Function Attrs: nounwind uwtable
define dso_local void @CallSyscacheCallbacks(i32 noundef %0, i32 noundef %1) local_unnamed_addr #0 {
  %or.cond = icmp ugt i32 %0, 84
  br i1 %or.cond, label %3, label %6

3:                                                ; preds = %2
  %4 = tail call zeroext i1 @errstart_cold(i32 noundef 21, ptr noundef null) #8
  tail call void @llvm.assume(i1 %4)
  %5 = tail call i32 (ptr, ...) @errmsg_internal(ptr noundef nonnull @.str.8, i32 noundef %0) #7
  tail call void @errfinish(ptr noundef nonnull @.str.1, i32 noundef 1773, ptr noundef nonnull @__func__.CallSyscacheCallbacks) #7
  unreachable

6:                                                ; preds = %2
  %7 = zext nneg i32 %0 to i64
  %8 = getelementptr inbounds nuw [85 x i16], ptr @syscache_callback_links, i64 0, i64 %7
  %.0.in.in12 = load i16, ptr %8, align 2
  %9 = icmp sgt i16 %.0.in.in12, 0
  br i1 %9, label %.lr.ph, label %._crit_edge

.lr.ph:                                           ; preds = %6, %.lr.ph
  %.0.in.in13 = phi i16 [ %.0.in.in, %.lr.ph ], [ %.0.in.in12, %6 ]
  %.0.in = zext nneg i16 %.0.in.in13 to i64
  %.0 = add nuw nsw i64 %.0.in, 4294967295
  %10 = and i64 %.0, 4294967295
  %11 = getelementptr inbounds nuw %struct.SYSCACHECALLBACK, ptr @syscache_callback_list, i64 %10
  %12 = getelementptr inbounds nuw i8, ptr %11, i64 8
  %13 = load ptr, ptr %12, align 8
  %14 = getelementptr inbounds nuw i8, ptr %11, i64 16
  %15 = load i64, ptr %14, align 8
  tail call void %13(i64 noundef %15, i32 noundef %0, i32 noundef %1) #7
  %16 = getelementptr inbounds nuw i8, ptr %11, i64 2
  %.0.in.in = load i16, ptr %16, align 2
  %17 = icmp sgt i16 %.0.in.in, 0
  br i1 %17, label %.lr.ph, label %._crit_edge, !llvm.loop !7

._crit_edge:                                      ; preds = %.lr.ph, %6
  ret void
}